target datalayout = "e-m:e-p270:32:32-p271:32:32-p272:64:64-i64:64-i128:128-f80:128-n8:16:32:64-S128"
target triple = "x86_64-pc-linux-gnu"

%class.LIR_Opr = type { i64 }
%class.ValueStack = type <{ ptr, ptr, i32, i32, %class.GrowableArray, %class.GrowableArray, ptr, i8, [7 x i8] }>
%class.GrowableArray = type { %class.GrowableArrayWithAllocator, %class.GrowableArrayMetadata }
%class.GrowableArrayWithAllocator = type { %class.GrowableArrayView }
%class.GrowableArrayView = type { %class.GrowableArrayBase, ptr }
%class.GrowableArrayBase = type { i32, i32 }
%class.GrowableArrayMetadata = type { i64 }
%class.Instruction = type { ptr, i32, i32, i32, ptr, ptr, ptr, %class.LIR_Opr, i32, ptr, ptr, ptr, ptr }
%class.ValueType = type { ptr, i32, i32 }

; Function Attrs: mustprogress nounwind uwtable
define linkonce_odr hidden noundef i32 @_ZNK9ValueType3tagEv(ptr noundef nonnull align 8 dereferenceable(16) %0) #1 comdat align 2 {
  %2 = alloca ptr, align 8
  store ptr %0, ptr %2, align 8
  %3 = load ptr, ptr %2, align 8
  %4 = getelementptr inbounds %class.ValueType, ptr %3, i32 0, i32 2
  %5 = load i32, ptr %4, align 4
  ret i32 %5
}

; Function Attrs: mustprogress nounwind uwtable
define linkonce_odr hidden noundef zeroext i1 @_ZNK9ValueType14is_double_wordEv(ptr noundef nonnull align 8 dereferenceable(16) %0) #1 comdat align 2 {
  %2 = alloca ptr, align 8
  store ptr %0, ptr %2, align 8
  %3 = load ptr, ptr %2, align 8
  %4 = getelementptr inbounds %class.ValueType, ptr %3, i32 0, i32 1
  %5 = load i32, ptr %4, align 8
  %6 = icmp eq i32 %5, 2
  ret i1 %6
}

; Function Attrs: mustprogress nounwind uwtable
define linkonce_odr hidden noundef zeroext i1 @_ZN9ValueType10is_illegalEv(ptr noundef nonnull align 8 dereferenceable(16) %0) #1 comdat align 2 {
  %2 = alloca ptr, align 8
  store ptr %0, ptr %2, align 8
  %3 = load ptr, ptr %2, align 8
  %4 = call noundef i32 @_ZNK9ValueType3tagEv(ptr noundef nonnull align 8 dereferenceable(16) %3)
  %5 = icmp eq i32 %4, 8
  ret i1 %5
}

; Function Attrs: mustprogress nounwind uwtable
define linkonce_odr hidden noundef ptr @_ZNK11Instruction4typeEv(ptr noundef nonnull align 8 dereferenceable(96) %0) #1 comdat align 2 {
  %2 = alloca ptr, align 8
  store ptr %0, ptr %2, align 8
  %3 = load ptr, ptr %2, align 8
  %4 = getelementptr inbounds %class.Instruction, ptr %3, i32 0, i32 4
  %5 = load ptr, ptr %4, align 8
  ret ptr %5
}

; Function Attrs: mustprogress nounwind uwtable
define linkonce_odr hidden noundef ptr @_ZNK17GrowableArrayViewIP11InstructionE6adr_atEi(ptr noundef nonnull align 8 dereferenceable(16) %0, i32 noundef %1) #1 comdat align 2 {
  %3 = alloca ptr, align 8
  %4 = alloca i32, align 4
  store ptr %0, ptr %3, align 8
  store i32 %1, ptr %4, align 4
  %5 = load ptr, ptr %3, align 8
  %6 = getelementptr inbounds %class.GrowableArrayView, ptr %5, i32 0, i32 1
  %7 = load ptr, ptr %6, align 8
  %8 = load i32, ptr %4, align 4
  %9 = sext i32 %8 to i64
  %10 = getelementptr inbounds ptr, ptr %7, i64 %9
  ret ptr %10
}

; Function Attrs: mustprogress nounwind uwtable
define linkonce_odr hidden noundef i32 @_ZNK17GrowableArrayBase6lengthEv(ptr noundef nonnull align 4 dereferenceable(8) %0) #1 comdat align 2 {
  %2 = alloca ptr, align 8
  store ptr %0, ptr %2, align 8
  %3 = load ptr, ptr %2, align 8
  %4 = getelementptr inbounds %class.GrowableArrayBase, ptr %3, i32 0, i32 0
  %5 = load i32, ptr %4, align 4
  ret i32 %5
}

; Function Attrs: mustprogress nounwind uwtable
define linkonce_odr hidden noundef ptr @_ZNK10ValueStack12caller_stateEv(ptr noundef nonnull align 8 dereferenceable(81) %0) #1 comdat align 2 {
  %2 = alloca ptr, align 8
  store ptr %0, ptr %2, align 8
  %3 = load ptr, ptr %2, align 8
  %4 = getelementptr inbounds %class.ValueStack, ptr %3, i32 0, i32 1
  %5 = load ptr, ptr %4, align 8
  ret ptr %5
}

; Function Attrs: mustprogress nounwind uwtable
define hidden void @_ZN10ValueStack5applyERK13GrowableArrayIP11InstructionEP12ValueVisitor(ptr noundef nonnull align 8 dereferenceable(24) %0, ptr noundef %1) #1 align 2 {
  %3 = alloca ptr, align 8
  %4 = alloca ptr, align 8
  %5 = alloca i32, align 4
  %6 = alloca ptr, align 8
  %7 = alloca ptr, align 8
  store ptr %0, ptr %3, align 8
  store ptr %1, ptr %4, align 8
  store i32 0, ptr %5, align 4
  br label %8

8:                                                ; preds = %39, %2
  %9 = load i32, ptr %5, align 4
  %10 = load ptr, ptr %3, align 8
  %11 = call noundef i32 @_ZNK17GrowableArrayBase6lengthEv(ptr noundef nonnull align 4 dereferenceable(8) %10)
  %12 = icmp slt i32 %9, %11
  br i1 %12, label %13, label %42

13:                                               ; preds = %8
  %14 = load ptr, ptr %3, align 8
  %15 = load i32, ptr %5, align 4
  %16 = call noundef ptr @_ZNK17GrowableArrayViewIP11InstructionE6adr_atEi(ptr noundef nonnull align 8 dereferenceable(16) %14, i32 noundef %15)
  store ptr %16, ptr %6, align 8
  %17 = load ptr, ptr %6, align 8
  %18 = load ptr, ptr %17, align 8
  store ptr %18, ptr %7, align 8
  %19 = load ptr, ptr %7, align 8
  %20 = icmp ne ptr %19, null
  br i1 %20, label %21, label %38

21:                                               ; preds = %13
  %22 = load ptr, ptr %7, align 8
  %23 = call noundef ptr @_ZNK11Instruction4typeEv(ptr noundef nonnull align 8 dereferenceable(96) %22)
  %24 = call noundef zeroext i1 @_ZN9ValueType10is_illegalEv(ptr noundef nonnull align 8 dereferenceable(16) %23)
  br i1 %24, label %38, label %25

25:                                               ; preds = %21
  %26 = load ptr, ptr %4, align 8
  %27 = load ptr, ptr %6, align 8
  %28 = load ptr, ptr %26, align 8
  %29 = getelementptr inbounds ptr, ptr %28, i64 0
  %30 = load ptr, ptr %29, align 8
  call void %30(ptr noundef nonnull align 8 dereferenceable(8) %26, ptr noundef %27)
  %31 = load ptr, ptr %7, align 8
  %32 = call noundef ptr @_ZNK11Instruction4typeEv(ptr noundef nonnull align 8 dereferenceable(96) %31)
  %33 = call noundef zeroext i1 @_ZNK9ValueType14is_double_wordEv(ptr noundef nonnull align 8 dereferenceable(16) %32)
  br i1 %33, label %34, label %37

34:                                               ; preds = %25
  %35 = load i32, ptr %5, align 4
  %36 = add nsw i32 %35, 1
  store i32 %36, ptr %5, align 4
  br label %37

37:                                               ; preds = %34, %25
  br label %38

38:                                               ; preds = %37, %21, %13
  br label %39

39:                                               ; preds = %38
  %40 = load i32, ptr %5, align 4
  %41 = add nsw i32 %40, 1
  store i32 %41, ptr %5, align 4
  br label %8, !llvm.loop !16

42:                                               ; preds = %8
  ret void
}

; Function Attrs: mustprogress nounwind uwtable
define hidden void @_ZN10ValueStack9values_doEP12ValueVisitor(ptr noundef nonnull align 8 dereferenceable(81) %0, ptr noundef %1) #1 align 2 {
  %3 = alloca ptr, align 8
  %4 = alloca ptr, align 8
  %5 = alloca ptr, align 8
  store ptr %0, ptr %3, align 8
  store ptr %1, ptr %4, align 8
  %6 = load ptr, ptr %3, align 8
  store ptr %6, ptr %5, align 8
  br label %7

7:                                                ; preds = %27, %2
  %8 = load ptr, ptr %5, align 8
  %9 = icmp ne ptr %8, null
  br i1 %9, label %10, label %30

10:                                               ; preds = %7
  %11 = load ptr, ptr %5, align 8
  %12 = getelementptr inbounds %class.ValueStack, ptr %11, i32 0, i32 4
  %13 = load ptr, ptr %4, align 8
  call void @_ZN10ValueStack5applyERK13GrowableArrayIP11InstructionEP12ValueVisitor(ptr noundef nonnull align 8 dereferenceable(24) %12, ptr noundef %13)
  %14 = load ptr, ptr %5, align 8
  %15 = getelementptr inbounds %class.ValueStack, ptr %14, i32 0, i32 5
  %16 = load ptr, ptr %4, align 8
  call void @_ZN10ValueStack5applyERK13GrowableArrayIP11InstructionEP12ValueVisitor(ptr noundef nonnull align 8 dereferenceable(24) %15, ptr noundef %16)
  %17 = load ptr, ptr %5, align 8
  %18 = getelementptr inbounds %class.ValueStack, ptr %17, i32 0, i32 6
  %19 = load ptr, ptr %18, align 8
  %20 = icmp ne ptr %19, null
  br i1 %20, label %21, label %26

21:                                               ; preds = %10
  %22 = load ptr, ptr %5, align 8
  %23 = getelementptr inbounds %class.ValueStack, ptr %22, i32 0, i32 6
  %24 = load ptr, ptr %23, align 8
  %25 = load ptr, ptr %4, align 8
  call void @_ZN10ValueStack5applyERK13GrowableArrayIP11InstructionEP12ValueVisitor(ptr noundef nonnull align 8 dereferenceable(24) %24, ptr noundef %25)
  br label %26

26:                                               ; preds = %21, %10
  br label %27

27:                                               ; preds = %26
  %28 = load ptr, ptr %5, align 8
  %29 = call noundef ptr @_ZNK10ValueStack12caller_stateEv(ptr noundef nonnull align 8 dereferenceable(81) %28)
  store ptr %29, ptr %5, align 8
  br label %7, !llvm.loop !17

30:                                               ; preds = %7
  ret void
}