; Function Attrs: mustprogress nounwind uwtable
define hidden void @_ZN10ValueStack9values_doEP12ValueVisitor(ptr nocapture noundef nonnull readonly align 8 dereferenceable(81) %0, ptr noundef %1) local_unnamed_addr #0 align 2 {
  br label %3

3:                                                ; preds = %2, %_ZN10ValueStack5applyERK13GrowableArrayIP11InstructionEP12ValueVisitor.exit25
  %.026 = phi ptr [ %0, %2 ], [ %91, %_ZN10ValueStack5applyERK13GrowableArrayIP11InstructionEP12ValueVisitor.exit25 ]
  %4 = getelementptr inbounds i8, ptr %.026, i64 24
  %5 = load i32, ptr %4, align 4
  %6 = icmp sgt i32 %5, 0
  br i1 %6, label %.lr.ph.i, label %_ZN10ValueStack5applyERK13GrowableArrayIP11InstructionEP12ValueVisitor.exit

.lr.ph.i:                                         ; preds = %3
  %7 = getelementptr inbounds i8, ptr %.026, i64 32
  br label %8

8:                                                ; preds = %28, %.lr.ph.i
  %9 = phi i32 [ %5, %.lr.ph.i ], [ %29, %28 ]
  %.012.i = phi i32 [ 0, %.lr.ph.i ], [ %30, %28 ]
  %10 = load ptr, ptr %7, align 8
  %11 = sext i32 %.012.i to i64
  %12 = getelementptr inbounds ptr, ptr %10, i64 %11
  %13 = load ptr, ptr %12, align 8
  %.not.i = icmp eq ptr %13, null
  br i1 %.not.i, label %28, label %14

14:                                               ; preds = %8
  %15 = getelementptr inbounds i8, ptr %13, i64 24
  %16 = load ptr, ptr %15, align 8
  %17 = getelementptr inbounds i8, ptr %16, i64 12
  %18 = load i32, ptr %17, align 4
  %19 = icmp eq i32 %18, 8
  br i1 %19, label %28, label %20

20:                                               ; preds = %14
  %21 = load ptr, ptr %1, align 8
  %22 = load ptr, ptr %21, align 8
  tail call void %22(ptr noundef nonnull align 8 dereferenceable(8) %1, ptr noundef nonnull %12) #8
  %23 = load ptr, ptr %15, align 8
  %24 = getelementptr inbounds i8, ptr %23, i64 8
  %25 = load i32, ptr %24, align 8
  %26 = icmp eq i32 %25, 2
  %27 = zext i1 %26 to i32
  %spec.select.i = add nsw i32 %.012.i, %27
  %.pre.i = load i32, ptr %4, align 4
  br label %28

28:                                               ; preds = %20, %14, %8
  %29 = phi i32 [ %9, %14 ], [ %9, %8 ], [ %.pre.i, %20 ]
  %.1.i = phi i32 [ %.012.i, %14 ], [ %.012.i, %8 ], [ %spec.select.i, %20 ]
  %30 = add nsw i32 %.1.i, 1
  %31 = icmp slt i32 %30, %29
  br i1 %31, label %8, label %_ZN10ValueStack5applyERK13GrowableArrayIP11InstructionEP12ValueVisitor.exit, !llvm.loop !17

_ZN10ValueStack5applyERK13GrowableArrayIP11InstructionEP12ValueVisitor.exit: ; preds = %28, %3
  %32 = getelementptr inbounds i8, ptr %.026, i64 48
  %33 = load i32, ptr %32, align 4
  %34 = icmp sgt i32 %33, 0
  br i1 %34, label %.lr.ph.i12, label %_ZN10ValueStack5applyERK13GrowableArrayIP11InstructionEP12ValueVisitor.exit18

.lr.ph.i12:                                       ; preds = %_ZN10ValueStack5applyERK13GrowableArrayIP11InstructionEP12ValueVisitor.exit
  %35 = getelementptr inbounds i8, ptr %.026, i64 56
  br label %36

36:                                               ; preds = %56, %.lr.ph.i12
  %37 = phi i32 [ %33, %.lr.ph.i12 ], [ %57, %56 ]
  %.012.i13 = phi i32 [ 0, %.lr.ph.i12 ], [ %58, %56 ]
  %38 = load ptr, ptr %35, align 8
  %39 = sext i32 %.012.i13 to i64
  %40 = getelementptr inbounds ptr, ptr %38, i64 %39
  %41 = load ptr, ptr %40, align 8
  %.not.i14 = icmp eq ptr %41, null
  br i1 %.not.i14, label %56, label %42

42:                                               ; preds = %36
  %43 = getelementptr inbounds i8, ptr %41, i64 24
  %44 = load ptr, ptr %43, align 8
  %45 = getelementptr inbounds i8, ptr %44, i64 12
  %46 = load i32, ptr %45, align 4
  %47 = icmp eq i32 %46, 8
  br i1 %47, label %56, label %48

48:                                               ; preds = %42
  %49 = load ptr, ptr %1, align 8
  %50 = load ptr, ptr %49, align 8
  tail call void %50(ptr noundef nonnull align 8 dereferenceable(8) %1, ptr noundef nonnull %40) #8
  %51 = load ptr, ptr %43, align 8
  %52 = getelementptr inbounds i8, ptr %51, i64 8
  %53 = load i32, ptr %52, align 8
  %54 = icmp eq i32 %53, 2
  %55 = zext i1 %54 to i32
  %spec.select.i15 = add nsw i32 %.012.i13, %55
  %.pre.i16 = load i32, ptr %32, align 4
  br label %56

56:                                               ; preds = %48, %42, %36
  %57 = phi i32 [ %37, %42 ], [ %37, %36 ], [ %.pre.i16, %48 ]
  %.1.i17 = phi i32 [ %.012.i13, %42 ], [ %.012.i13, %36 ], [ %spec.select.i15, %48 ]
  %58 = add nsw i32 %.1.i17, 1
  %59 = icmp slt i32 %58, %57
  br i1 %59, label %36, label %_ZN10ValueStack5applyERK13GrowableArrayIP11InstructionEP12ValueVisitor.exit18, !llvm.loop !17

_ZN10ValueStack5applyERK13GrowableArrayIP11InstructionEP12ValueVisitor.exit18: ; preds = %56, %_ZN10ValueStack5applyERK13GrowableArrayIP11InstructionEP12ValueVisitor.exit
  %60 = getelementptr inbounds i8, ptr %.026, i64 72
  %61 = load ptr, ptr %60, align 8
  %.not11 = icmp eq ptr %61, null
  br i1 %.not11, label %_ZN10ValueStack5applyERK13GrowableArrayIP11InstructionEP12ValueVisitor.exit25, label %62

62:                                               ; preds = %_ZN10ValueStack5applyERK13GrowableArrayIP11InstructionEP12ValueVisitor.exit18
  %63 = load i32, ptr %61, align 4
  %64 = icmp sgt i32 %63, 0
  br i1 %64, label %.lr.ph.i19, label %_ZN10ValueStack5applyERK13GrowableArrayIP11InstructionEP12ValueVisitor.exit25

.lr.ph.i19:                                       ; preds = %62
  %65 = getelementptr inbounds i8, ptr %61, i64 8
  br label %66

66:                                               ; preds = %86, %.lr.ph.i19
  %67 = phi i32 [ %63, %.lr.ph.i19 ], [ %87, %86 ]
  %.012.i20 = phi i32 [ 0, %.lr.ph.i19 ], [ %88, %86 ]
  %68 = load ptr, ptr %65, align 8
  %69 = sext i32 %.012.i20 to i64
  %70 = getelementptr inbounds ptr, ptr %68, i64 %69
  %71 = load ptr, ptr %70, align 8
  %.not.i21 = icmp eq ptr %71, null
  br i1 %.not.i21, label %86, label %72

72:                                               ; preds = %66
  %73 = getelementptr inbounds i8, ptr %71, i64 24
  %74 = load ptr, ptr %73, align 8
  %75 = getelementptr inbounds i8, ptr %74, i64 12
  %76 = load i32, ptr %75, align 4
  %77 = icmp eq i32 %76, 8
  br i1 %77, label %86, label %78

78:                                               ; preds = %72
  %79 = load ptr, ptr %1, align 8
  %80 = load ptr, ptr %79, align 8
  tail call void %80(ptr noundef nonnull align 8 dereferenceable(8) %1, ptr noundef nonnull %70) #8
  %81 = load ptr, ptr %73, align 8
  %82 = getelementptr inbounds i8, ptr %81, i64 8
  %83 = load i32, ptr %82, align 8
  %84 = icmp eq i32 %83, 2
  %85 = zext i1 %84 to i32
  %spec.select.i22 = add nsw i32 %.012.i20, %85
  %.pre.i23 = load i32, ptr %61, align 4
  br label %86

86:                                               ; preds = %78, %72, %66
  %87 = phi i32 [ %67, %72 ], [ %67, %66 ], [ %.pre.i23, %78 ]
  %.1.i24 = phi i32 [ %.012.i20, %72 ], [ %.012.i20, %66 ], [ %spec.select.i22, %78 ]
  %88 = add nsw i32 %.1.i24, 1
  %89 = icmp slt i32 %88, %87
  br i1 %89, label %66, label %_ZN10ValueStack5applyERK13GrowableArrayIP11InstructionEP12ValueVisitor.exit25, !llvm.loop !17

_ZN10ValueStack5applyERK13GrowableArrayIP11InstructionEP12ValueVisitor.exit25: ; preds = %86, %62, %_ZN10ValueStack5applyERK13GrowableArrayIP11InstructionEP12ValueVisitor.exit18
  %90 = getelementptr inbounds i8, ptr %.026, i64 8
  %91 = load ptr, ptr %90, align 8
  %.not = icmp eq ptr %91, null
  br i1 %.not, label %92, label %3, !llvm.loop !18

92:                                               ; preds = %_ZN10ValueStack5applyERK13GrowableArrayIP11InstructionEP12ValueVisitor.exit25
  ret void
}